target datalayout = "e-m:e-p270:32:32-p271:32:32-p272:64:64-i64:64-i128:128-f80:128-n8:16:32:64-S128"
target triple = "x86_64-pc-linux-gnu"

%union.pthread_mutex_t = type { %struct.__pthread_mutex_s }
%struct.__pthread_mutex_s = type { i32, i32, i32, i32, i32, i16, i16, %struct.__pthread_internal_list }
%struct.__pthread_internal_list = type { ptr, ptr }
%union.pthread_cond_t = type { %struct.__pthread_cond_s }
%struct.__pthread_cond_s = type { %union.__atomic_wide_counter, %union.__atomic_wide_counter, [2 x i32], [2 x i32], i32, i32, [2 x i32] }
%union.__atomic_wide_counter = type { i64 }
%struct.stepd_step_rec_t = type { ptr, ptr, i32, %union.pthread_cond_t, %union.pthread_mutex_t, %struct.slurm_step_id_msg, i32, i32, i32, i32, i32, i32, ptr, ptr, i32, i32, ptr, i32, i32, i32, i32, i32, ptr, ptr, ptr, ptr, i32, i32, i64, i64, i16, i32, ptr, ptr, ptr, i32, ptr, i32, ptr, i32, ptr, i16, i32, i32, i32, ptr, i32, ptr, ptr, ptr, ptr, i32, i32, ptr, ptr, i8, i8, i8, i64, i32, ptr, ptr, ptr, ptr, ptr, ptr, ptr, ptr, ptr, ptr, i32, i32, ptr, i8, %union.pthread_cond_t, %union.pthread_mutex_t, i64, ptr, i32, i32, i32, ptr, i64, ptr, ptr, i8, ptr, i16, ptr, ptr, ptr, ptr, ptr, ptr, i64, ptr, i64, ptr, i16, i8, i16, i32, ptr, i16, ptr, ptr, i16, ptr, ptr, ptr, i8 }
%struct.slurm_step_id_msg = type { i64, i32, i32, i32 }

@.str.26 = private unnamed_addr constant [6 x i8] c"req.c\00", align 1
@.str.36 = private unnamed_addr constant [45 x i8] c"%s:%d: %s: safe_write (%zu of %d) failed: %m\00", align 1
@.str.37 = private unnamed_addr constant [48 x i8] c"%s:%d: %s: safe_write (%zu of %d) partial write\00", align 1
@__func__._handle_mem_limits = private unnamed_addr constant [19 x i8] c"_handle_mem_limits\00", align 1

; Function Attrs: nounwind uwtable
define internal i32 @_handle_mem_limits(i32 noundef %0, ptr noundef %1) #0 {
  %3 = alloca i32, align 4
  %4 = alloca i32, align 4
  %5 = alloca ptr, align 8
  %6 = alloca i64, align 8
  %7 = alloca ptr, align 8
  %8 = alloca i32, align 4
  %9 = alloca i32, align 4
  %10 = alloca i64, align 8
  %11 = alloca ptr, align 8
  %12 = alloca i32, align 4
  store i32 %0, ptr %4, align 4
  store ptr %1, ptr %5, align 8
  br label %13

13:                                               ; preds = %2
  call void @llvm.lifetime.start.p0(i64 8, ptr %6) #10
  store i64 8, ptr %6, align 8
  call void @llvm.lifetime.start.p0(i64 8, ptr %7) #10
  %14 = load ptr, ptr %5, align 8
  %15 = getelementptr inbounds nuw %struct.stepd_step_rec_t, ptr %14, i32 0, i32 28
  store ptr %15, ptr %7, align 8
  call void @llvm.lifetime.start.p0(i64 4, ptr %8) #10
  br label %16

16:                                               ; preds = %72, %35, %13
  %17 = load i64, ptr %6, align 8
  %18 = icmp ugt i64 %17, 0
  br i1 %18, label %19, label %73

19:                                               ; preds = %16
  %20 = load i32, ptr %4, align 4
  %21 = load ptr, ptr %7, align 8
  %22 = load i64, ptr %6, align 8
  %23 = call i64 @write(i32 noundef %20, ptr noundef %21, i64 noundef %22)
  %24 = trunc i64 %23 to i32
  store i32 %24, ptr %8, align 4
  %25 = load i32, ptr %8, align 4
  %26 = icmp slt i32 %25, 0
  br i1 %26, label %27, label %48

27:                                               ; preds = %19
  %28 = call ptr @__errno_location() #11
  %29 = load i32, ptr %28, align 4
  %30 = icmp eq i32 %29, 11
  br i1 %30, label %35, label %31

31:                                               ; preds = %27
  %32 = call ptr @__errno_location() #11
  %33 = load i32, ptr %32, align 4
  %34 = icmp eq i32 %33, 4
  br i1 %34, label %35, label %36

35:                                               ; preds = %31, %27
  br label %16, !llvm.loop !29

36:                                               ; preds = %31
  br label %37

37:                                               ; preds = %36
  br label %38

38:                                               ; preds = %37
  %39 = call i32 @get_log_level()
  %40 = icmp sge i32 %39, 5
  br i1 %40, label %41, label %43

41:                                               ; preds = %38
  %42 = load i64, ptr %6, align 8
  call void (i32, ptr, ...) @log_var(i32 noundef 5, ptr noundef @.str.36, ptr noundef @.str.26, i32 noundef 1007, ptr noundef @__func__._handle_mem_limits, i64 noundef %42, i32 noundef 8)
  br label %43

43:                                               ; preds = %41, %38
  br label %44

44:                                               ; preds = %43
  br label %45

45:                                               ; preds = %44
  br label %46

46:                                               ; preds = %45
  br label %47

47:                                               ; preds = %46
  store i32 10, ptr %9, align 4
  br label %74

48:                                               ; preds = %19
  %49 = load i32, ptr %8, align 4
  %50 = load ptr, ptr %7, align 8
  %51 = sext i32 %49 to i64
  %52 = getelementptr inbounds i8, ptr %50, i64 %51
  store ptr %52, ptr %7, align 8
  %53 = load i32, ptr %8, align 4
  %54 = sext i32 %53 to i64
  %55 = load i64, ptr %6, align 8
  %56 = sub i64 %55, %54
  store i64 %56, ptr %6, align 8
  %57 = load i64, ptr %6, align 8
  %58 = icmp ugt i64 %57, 0
  br i1 %58, label %59, label %71

59:                                               ; preds = %48
  br label %60

60:                                               ; preds = %59
  br label %61

61:                                               ; preds = %60
  %62 = call i32 @get_log_level()
  %63 = icmp sge i32 %62, 7
  br i1 %63, label %64, label %66

64:                                               ; preds = %61
  %65 = load i64, ptr %6, align 8
  call void (i32, ptr, ...) @log_var(i32 noundef 7, ptr noundef @.str.37, ptr noundef @.str.26, i32 noundef 1007, ptr noundef @__func__._handle_mem_limits, i64 noundef %65, i32 noundef 8)
  br label %66

66:                                               ; preds = %64, %61
  br label %67

67:                                               ; preds = %66
  br label %68

68:                                               ; preds = %67
  br label %69

69:                                               ; preds = %68
  br label %70

70:                                               ; preds = %69
  br label %71

71:                                               ; preds = %70, %48
  br label %72

72:                                               ; preds = %71
  br label %16, !llvm.loop !29

73:                                               ; preds = %16
  store i32 0, ptr %9, align 4
  br label %74

74:                                               ; preds = %47, %73
  call void @llvm.lifetime.end.p0(i64 4, ptr %8) #10
  call void @llvm.lifetime.end.p0(i64 8, ptr %7) #10
  call void @llvm.lifetime.end.p0(i64 8, ptr %6) #10
  %75 = load i32, ptr %9, align 4
  switch i32 %75, label %146 [
    i32 0, label %76
    i32 10, label %143
  ]

76:                                               ; preds = %74
  br label %77

77:                                               ; preds = %76
  br label %78

78:                                               ; preds = %77
  call void @llvm.lifetime.start.p0(i64 8, ptr %10) #10
  store i64 8, ptr %10, align 8
  call void @llvm.lifetime.start.p0(i64 8, ptr %11) #10
  %79 = load ptr, ptr %5, align 8
  %80 = getelementptr inbounds nuw %struct.stepd_step_rec_t, ptr %79, i32 0, i32 29
  store ptr %80, ptr %11, align 8
  call void @llvm.lifetime.start.p0(i64 4, ptr %12) #10
  br label %81

81:                                               ; preds = %137, %100, %78
  %82 = load i64, ptr %10, align 8
  %83 = icmp ugt i64 %82, 0
  br i1 %83, label %84, label %138

84:                                               ; preds = %81
  %85 = load i32, ptr %4, align 4
  %86 = load ptr, ptr %11, align 8
  %87 = load i64, ptr %10, align 8
  %88 = call i64 @write(i32 noundef %85, ptr noundef %86, i64 noundef %87)
  %89 = trunc i64 %88 to i32
  store i32 %89, ptr %12, align 4
  %90 = load i32, ptr %12, align 4
  %91 = icmp slt i32 %90, 0
  br i1 %91, label %92, label %113

92:                                               ; preds = %84
  %93 = call ptr @__errno_location() #11
  %94 = load i32, ptr %93, align 4
  %95 = icmp eq i32 %94, 11
  br i1 %95, label %100, label %96

96:                                               ; preds = %92
  %97 = call ptr @__errno_location() #11
  %98 = load i32, ptr %97, align 4
  %99 = icmp eq i32 %98, 4
  br i1 %99, label %100, label %101

100:                                              ; preds = %96, %92
  br label %81, !llvm.loop !30

101:                                              ; preds = %96
  br label %102

102:                                              ; preds = %101
  br label %103

103:                                              ; preds = %102
  %104 = call i32 @get_log_level()
  %105 = icmp sge i32 %104, 5
  br i1 %105, label %106, label %108

106:                                              ; preds = %103
  %107 = load i64, ptr %10, align 8
  call void (i32, ptr, ...) @log_var(i32 noundef 5, ptr noundef @.str.36, ptr noundef @.str.26, i32 noundef 1008, ptr noundef @__func__._handle_mem_limits, i64 noundef %107, i32 noundef 8)
  br label %108

108:                                              ; preds = %106, %103
  br label %109

109:                                              ; preds = %108
  br label %110

110:                                              ; preds = %109
  br label %111

111:                                              ; preds = %110
  br label %112

112:                                              ; preds = %111
  store i32 10, ptr %9, align 4
  br label %139

113:                                              ; preds = %84
  %114 = load i32, ptr %12, align 4
  %115 = load ptr, ptr %11, align 8
  %116 = sext i32 %114 to i64
  %117 = getelementptr inbounds i8, ptr %115, i64 %116
  store ptr %117, ptr %11, align 8
  %118 = load i32, ptr %12, align 4
  %119 = sext i32 %118 to i64
  %120 = load i64, ptr %10, align 8
  %121 = sub i64 %120, %119
  store i64 %121, ptr %10, align 8
  %122 = load i64, ptr %10, align 8
  %123 = icmp ugt i64 %122, 0
  br i1 %123, label %124, label %136

124:                                              ; preds = %113
  br label %125

125:                                              ; preds = %124
  br label %126

126:                                              ; preds = %125
  %127 = call i32 @get_log_level()
  %128 = icmp sge i32 %127, 7
  br i1 %128, label %129, label %131

129:                                              ; preds = %126
  %130 = load i64, ptr %10, align 8
  call void (i32, ptr, ...) @log_var(i32 noundef 7, ptr noundef @.str.37, ptr noundef @.str.26, i32 noundef 1008, ptr noundef @__func__._handle_mem_limits, i64 noundef %130, i32 noundef 8)
  br label %131

131:                                              ; preds = %129, %126
  br label %132

132:                                              ; preds = %131
  br label %133

133:                                              ; preds = %132
  br label %134

134:                                              ; preds = %133
  br label %135

135:                                              ; preds = %134
  br label %136

136:                                              ; preds = %135, %113
  br label %137

137:                                              ; preds = %136
  br label %81, !llvm.loop !30

138:                                              ; preds = %81
  store i32 0, ptr %9, align 4
  br label %139

139:                                              ; preds = %112, %138
  call void @llvm.lifetime.end.p0(i64 4, ptr %12) #10
  call void @llvm.lifetime.end.p0(i64 8, ptr %11) #10
  call void @llvm.lifetime.end.p0(i64 8, ptr %10) #10
  %140 = load i32, ptr %9, align 4
  switch i32 %140, label %146 [
    i32 0, label %141
    i32 10, label %143
  ]

141:                                              ; preds = %139
  br label %142

142:                                              ; preds = %141
  store i32 0, ptr %3, align 4
  br label %144

143:                                              ; preds = %139, %74
  store i32 -1, ptr %3, align 4
  br label %144

144:                                              ; preds = %143, %142
  %145 = load i32, ptr %3, align 4
  ret i32 %145

146:                                              ; preds = %139, %74
  unreachable
}