; Function Attrs: nounwind uwtable
define internal fastcc range(i32 -1, 1) i32 @_handle_mem_limits(i32 noundef %0, ptr noundef readonly captures(none) %1) unnamed_addr #0 {
  %3 = getelementptr inbounds nuw i8, ptr %1, i64 256
  br label %.lr.ph.split

.lr.ph.split:                                     ; preds = %.lr.ph.split.backedge, %2
  %.031.ph68 = phi i64 [ 8, %2 ], [ %17, %.lr.ph.split.backedge ]
  %.032.ph66 = phi ptr [ %3, %2 ], [ %16, %.lr.ph.split.backedge ]
  %4 = tail call i64 @write(i32 noundef %0, ptr noundef %.032.ph66, i64 noundef %.031.ph68) #13
  %5 = and i64 %4, 2147483648
  %.not3964 = icmp eq i64 %5, 0
  br i1 %.not3964, label %.split.us, label %.lr.ph65

.lr.ph65:                                         ; preds = %.lr.ph.split
  %6 = tail call ptr @__errno_location() #14
  br label %7

7:                                                ; preds = %.lr.ph65, %9
  %8 = load i32, ptr %6, align 4
  switch i32 %8, label %.split59.us [
    i32 11, label %9
    i32 4, label %9
  ]

9:                                                ; preds = %7, %7
  %10 = tail call i64 @write(i32 noundef %0, ptr noundef %.032.ph66, i64 noundef %.031.ph68) #13
  %11 = and i64 %10, 2147483648
  %.not39 = icmp eq i64 %11, 0
  br i1 %.not39, label %.split.us, label %7

.split59.us:                                      ; preds = %7
  %12 = tail call i32 @get_log_level() #13
  %13 = icmp sgt i32 %12, 4
  br i1 %13, label %14, label %.thread

14:                                               ; preds = %.split59.us
  tail call void (i32, ptr, ...) @log_var(i32 noundef 5, ptr noundef nonnull @.str.36, ptr noundef nonnull @.str.26, i32 noundef 1007, ptr noundef nonnull @__func__._handle_mem_limits, i64 noundef %.031.ph68, i32 noundef 8) #13
  br label %.thread

.split.us:                                        ; preds = %9, %.lr.ph.split
  %.us-phi = phi i64 [ %4, %.lr.ph.split ], [ %10, %9 ]
  %15 = and i64 %.us-phi, 2147483647
  %16 = getelementptr inbounds nuw i8, ptr %.032.ph66, i64 %15
  %17 = sub i64 %.031.ph68, %15
  %.not40 = icmp eq i64 %17, 0
  br i1 %.not40, label %.outer52._crit_edge, label %18

18:                                               ; preds = %.split.us
  %19 = tail call i32 @get_log_level() #13
  %20 = icmp sgt i32 %19, 6
  br i1 %20, label %21, label %.lr.ph.split.backedge

21:                                               ; preds = %18
  tail call void (i32, ptr, ...) @log_var(i32 noundef 7, ptr noundef nonnull @.str.37, ptr noundef nonnull @.str.26, i32 noundef 1007, ptr noundef nonnull @__func__._handle_mem_limits, i64 noundef %17, i32 noundef 8) #13
  br label %.lr.ph.split.backedge

.lr.ph.split.backedge:                            ; preds = %21, %18
  br label %.lr.ph.split, !llvm.loop !28

.outer52._crit_edge:                              ; preds = %.split.us
  %22 = getelementptr inbounds nuw i8, ptr %1, i64 264
  br label %.lr.ph71.split

.lr.ph71.split:                                   ; preds = %.lr.ph71.split.backedge, %.outer52._crit_edge
  %.028.ph86 = phi ptr [ %22, %.outer52._crit_edge ], [ %35, %.lr.ph71.split.backedge ]
  %.029.ph84 = phi i64 [ 8, %.outer52._crit_edge ], [ %36, %.lr.ph71.split.backedge ]
  %23 = tail call i64 @write(i32 noundef %0, ptr noundef %.028.ph86, i64 noundef %.029.ph84) #13
  %24 = and i64 %23, 2147483648
  %.not4281 = icmp eq i64 %24, 0
  br i1 %.not4281, label %.split73.us, label %.lr.ph82

.lr.ph82:                                         ; preds = %.lr.ph71.split
  %25 = tail call ptr @__errno_location() #14
  br label %26

26:                                               ; preds = %.lr.ph82, %28
  %27 = load i32, ptr %25, align 4
  switch i32 %27, label %.split76.us [
    i32 11, label %28
    i32 4, label %28
  ]

28:                                               ; preds = %26, %26
  %29 = tail call i64 @write(i32 noundef %0, ptr noundef %.028.ph86, i64 noundef %.029.ph84) #13
  %30 = and i64 %29, 2147483648
  %.not42 = icmp eq i64 %30, 0
  br i1 %.not42, label %.split73.us, label %26

.split76.us:                                      ; preds = %26
  %31 = tail call i32 @get_log_level() #13
  %32 = icmp sgt i32 %31, 4
  br i1 %32, label %33, label %.thread

33:                                               ; preds = %.split76.us
  tail call void (i32, ptr, ...) @log_var(i32 noundef 5, ptr noundef nonnull @.str.36, ptr noundef nonnull @.str.26, i32 noundef 1008, ptr noundef nonnull @__func__._handle_mem_limits, i64 noundef %.029.ph84, i32 noundef 8) #13
  br label %.thread

.split73.us:                                      ; preds = %28, %.lr.ph71.split
  %.us-phi74 = phi i64 [ %23, %.lr.ph71.split ], [ %29, %28 ]
  %34 = and i64 %.us-phi74, 2147483647
  %35 = getelementptr inbounds nuw i8, ptr %.028.ph86, i64 %34
  %36 = sub i64 %.029.ph84, %34
  %.not43 = icmp eq i64 %36, 0
  br i1 %.not43, label %.thread, label %37

37:                                               ; preds = %.split73.us
  %38 = tail call i32 @get_log_level() #13
  %39 = icmp sgt i32 %38, 6
  br i1 %39, label %40, label %.lr.ph71.split.backedge

40:                                               ; preds = %37
  tail call void (i32, ptr, ...) @log_var(i32 noundef 7, ptr noundef nonnull @.str.37, ptr noundef nonnull @.str.26, i32 noundef 1008, ptr noundef nonnull @__func__._handle_mem_limits, i64 noundef %36, i32 noundef 8) #13
  br label %.lr.ph71.split.backedge

.lr.ph71.split.backedge:                          ; preds = %40, %37
  br label %.lr.ph71.split, !llvm.loop !29

.thread:                                          ; preds = %.split73.us, %.split76.us, %33, %.split59.us, %14
  %.0 = phi i32 [ -1, %14 ], [ -1, %.split59.us ], [ -1, %33 ], [ -1, %.split76.us ], [ 0, %.split73.us ]
  ret i32 %.0
}